target datalayout = "e-m:e-p270:32:32-p271:32:32-p272:64:64-i64:64-i128:128-f80:128-n8:16:32:64-S128"
target triple = "x86_64-pc-linux-gnu"

%class.MemRegion = type { ptr, i64 }
%class.SerialHeap = type { %class.CollectedHeap, ptr, ptr, ptr, ptr, ptr, ptr, ptr, ptr, ptr, ptr, ptr }
%class.CollectedHeap = type { ptr, ptr, i64, i64, %class.SoftRefPolicy, %class.MemRegion, i8, i64, i32, i32, i32, i32, ptr, ptr }
%class.SoftRefPolicy = type { i8, i8 }
%class.ReservedHeapSpace = type { %class.ReservedSpace.base, [7 x i8] }
%class.ReservedSpace.base = type <{ ptr, i64, i64, i64, i64, i8, [3 x i8], i32, i8 }>
%class.ReservedSpace = type <{ ptr, i64, i64, i64, i64, i8, [3 x i8], i32, i8, [7 x i8] }>

@HeapAlignment = external global i64, align 8
@.str.9 = private unnamed_addr constant [47 x i8] c"Could not reserve enough space for object heap\00", align 1
@MaxNewSize = external global i64, align 8
@NewSize = external global i64, align 8
@MinNewSize = external global i64, align 8
@.str.10 = private unnamed_addr constant [31 x i8] c"Serial young collection pauses\00", align 1
@OldSize = external global i64, align 8
@MinOldSize = external global i64, align 8
@MaxOldSize = external global i64, align 8
@UseLargePages = external global i8, align 1
@.str.11 = private unnamed_addr constant [77 x i8] c"The size of the object heap + VM data exceeds the maximum representable size\00", align 1
@.str.12 = private unnamed_addr constant [5 x i8] c"Heap\00", align 1
@MinHeapSize = external global i64, align 8
@_ZN6OSInfo13_vm_page_sizeE = external global i64, align 8

; Function Attrs: mustprogress nounwind uwtable
define linkonce_odr hidden noundef i64 @_ZN6OSInfo12vm_page_sizeEv() #1 comdat align 2 {
  %1 = load i64, ptr @_ZN6OSInfo13_vm_page_sizeE, align 8
  ret i64 %1
}

; Function Attrs: mustprogress nounwind uwtable
define linkonce_odr hidden noundef i64 @_ZNK13ReservedSpace9alignmentEv(ptr noundef nonnull align 8 dereferenceable(49) %0) #1 comdat align 2 {
  %2 = alloca ptr, align 8
  store ptr %0, ptr %2, align 8
  %3 = load ptr, ptr %2, align 8
  %4 = getelementptr inbounds %class.ReservedSpace, ptr %3, i32 0, i32 3
  %5 = load i64, ptr %4, align 8
  ret i64 %5
}

; Function Attrs: mustprogress nounwind uwtable
define linkonce_odr hidden noundef i64 @_ZNK13ReservedSpace4sizeEv(ptr noundef nonnull align 8 dereferenceable(49) %0) #1 comdat align 2 {
  %2 = alloca ptr, align 8
  store ptr %0, ptr %2, align 8
  %3 = load ptr, ptr %2, align 8
  %4 = getelementptr inbounds %class.ReservedSpace, ptr %3, i32 0, i32 1
  %5 = load i64, ptr %4, align 8
  ret i64 %5
}

; Function Attrs: mustprogress nounwind uwtable
define linkonce_odr hidden noundef i64 @_ZNK13ReservedSpace9page_sizeEv(ptr noundef nonnull align 8 dereferenceable(49) %0) #1 comdat align 2 {
  %2 = alloca ptr, align 8
  store ptr %0, ptr %2, align 8
  %3 = load ptr, ptr %2, align 8
  %4 = getelementptr inbounds %class.ReservedSpace, ptr %3, i32 0, i32 4
  %5 = load i64, ptr %4, align 8
  ret i64 %5
}

; Function Attrs: mustprogress nounwind uwtable
define linkonce_odr hidden noundef i64 @_ZN2os12vm_page_sizeEv() #1 comdat align 2 {
  %1 = call noundef i64 @_ZN6OSInfo12vm_page_sizeEv()
  ret i64 %1
}

; Function Attrs: mustprogress nounwind uwtable
define linkonce_odr hidden noundef ptr @_ZN10SerialHeap7rem_setEv(ptr noundef nonnull align 8 dereferenceable(192) %0) #1 comdat align 2 {
  %2 = alloca ptr, align 8
  store ptr %0, ptr %2, align 8
  %3 = load ptr, ptr %2, align 8
  %4 = getelementptr inbounds %class.SerialHeap, ptr %3, i32 0, i32 5
  %5 = load ptr, ptr %4, align 8
  ret ptr %5
}

; Function Attrs: mustprogress nounwind uwtable
define linkonce_odr hidden noundef ptr @_ZNK13ReservedSpace4baseEv(ptr noundef nonnull align 8 dereferenceable(49) %0) #1 comdat align 2 {
  %2 = alloca ptr, align 8
  store ptr %0, ptr %2, align 8
  %3 = load ptr, ptr %2, align 8
  %4 = getelementptr inbounds %class.ReservedSpace, ptr %3, i32 0, i32 0
  %5 = load ptr, ptr %4, align 8
  ret ptr %5
}

; Function Attrs: mustprogress nounwind uwtable
define linkonce_odr hidden void @_ZN13ReservedSpace9last_partEm(ptr dead_on_unwind noalias writable sret(%class.ReservedSpace) align 8 %0, ptr noundef nonnull align 8 dereferenceable(49) %1, i64 noundef %2) #1 comdat align 2 {
  %4 = alloca ptr, align 8
  %5 = alloca i64, align 8
  store ptr %1, ptr %4, align 8
  store i64 %2, ptr %5, align 8
  %6 = load ptr, ptr %4, align 8
  %7 = load i64, ptr %5, align 8
  %8 = call noundef i64 @_ZNK13ReservedSpace9alignmentEv(ptr noundef nonnull align 8 dereferenceable(49) %6)
  call void @_ZN13ReservedSpace9last_partEmm(ptr dead_on_unwind writable sret(%class.ReservedSpace) align 8 %0, ptr noundef nonnull align 8 dereferenceable(49) %6, i64 noundef %7, i64 noundef %8)
  ret void
}

; Function Attrs: mustprogress nounwind uwtable
define linkonce_odr hidden void @_ZN13ReservedSpace10first_partEm(ptr dead_on_unwind noalias writable sret(%class.ReservedSpace) align 8 %0, ptr noundef nonnull align 8 dereferenceable(49) %1, i64 noundef %2) #1 comdat align 2 {
  %4 = alloca ptr, align 8
  %5 = alloca i64, align 8
  store ptr %1, ptr %4, align 8
  store i64 %2, ptr %5, align 8
  %6 = load ptr, ptr %4, align 8
  %7 = load i64, ptr %5, align 8
  %8 = call noundef i64 @_ZNK13ReservedSpace9alignmentEv(ptr noundef nonnull align 8 dereferenceable(49) %6)
  call void @_ZN13ReservedSpace10first_partEmm(ptr dead_on_unwind writable sret(%class.ReservedSpace) align 8 %0, ptr noundef nonnull align 8 dereferenceable(49) %6, i64 noundef %7, i64 noundef %8)
  ret void
}

; Function Attrs: mustprogress nounwind uwtable
define linkonce_odr hidden noundef zeroext i1 @_ZNK13ReservedSpace11is_reservedEv(ptr noundef nonnull align 8 dereferenceable(49) %0) #1 comdat align 2 {
  %2 = alloca ptr, align 8
  store ptr %0, ptr %2, align 8
  %3 = load ptr, ptr %2, align 8
  %4 = getelementptr inbounds %class.ReservedSpace, ptr %3, i32 0, i32 0
  %5 = load ptr, ptr %4, align 8
  %6 = icmp ne ptr %5, null
  ret i1 %6
}

; Function Attrs: mustprogress nounwind uwtable
define hidden void @_ZN10SerialHeap8allocateEm(ptr dead_on_unwind noalias writable sret(%class.ReservedHeapSpace) align 8 %0, ptr noundef nonnull align 8 dereferenceable(192) %1, i64 noundef %2) #1 align 2 {
  %4 = alloca ptr, align 8
  %5 = alloca i64, align 8
  %6 = alloca i64, align 8
  %7 = alloca i64, align 8
  %8 = alloca i64, align 8
  store ptr %1, ptr %4, align 8
  store i64 %2, ptr %5, align 8
  %9 = load i8, ptr @UseLargePages, align 1
  %10 = trunc i8 %9 to i1
  br i1 %10, label %11, label %13

11:                                               ; preds = %3
  %12 = call noundef i64 @_ZN2os15large_page_sizeEv()
  br label %15

13:                                               ; preds = %3
  %14 = call noundef i64 @_ZN2os12vm_page_sizeEv()
  br label %15

15:                                               ; preds = %13, %11
  %16 = phi i64 [ %12, %11 ], [ %14, %13 ]
  store i64 %16, ptr %6, align 8
  %17 = load i64, ptr @MaxNewSize, align 8
  %18 = load i64, ptr @MaxOldSize, align 8
  %19 = add i64 %17, %18
  store i64 %19, ptr %7, align 8
  %20 = load i64, ptr %7, align 8
  %21 = load i64, ptr @MaxNewSize, align 8
  %22 = icmp ult i64 %20, %21
  br i1 %22, label %23, label %24

23:                                               ; preds = %15
  call void @_Z29vm_exit_during_initializationPKcS0_(ptr noundef @.str.11, ptr noundef null)
  br label %24

24:                                               ; preds = %23, %15
  %25 = load i64, ptr %7, align 8
  %26 = load i64, ptr %5, align 8
  call void @_ZN8Universe12reserve_heapEmm(ptr dead_on_unwind writable sret(%class.ReservedHeapSpace) align 8 %0, i64 noundef %25, i64 noundef %26)
  %27 = call noundef i64 @_ZNK13ReservedSpace9page_sizeEv(ptr noundef nonnull align 8 dereferenceable(49) %0)
  store i64 %27, ptr %8, align 8
  %28 = load i64, ptr @MinHeapSize, align 8
  %29 = load i64, ptr %7, align 8
  %30 = call noundef ptr @_ZNK13ReservedSpace4baseEv(ptr noundef nonnull align 8 dereferenceable(49) %0)
  %31 = call noundef i64 @_ZNK13ReservedSpace4sizeEv(ptr noundef nonnull align 8 dereferenceable(49) %0)
  %32 = load i64, ptr %8, align 8
  call void @_ZN2os16trace_page_sizesEPKcmmS1_mm(ptr noundef @.str.12, i64 noundef %28, i64 noundef %29, ptr noundef %30, i64 noundef %31, i64 noundef %32)
  ret void
}

; Function Attrs: mustprogress nounwind uwtable
define hidden noundef i32 @_ZN10SerialHeap10initializeEv(ptr noundef nonnull align 8 dereferenceable(192) %0) unnamed_addr #1 align 2 {
  %2 = alloca i64, align 8
  %3 = alloca i8, align 1
  %4 = alloca i64, align 8
  %5 = alloca i8, align 1
  %6 = alloca i64, align 8
  %7 = alloca i8, align 1
  %8 = alloca i64, align 8
  %9 = alloca i8, align 1
  %10 = alloca i64, align 8
  %11 = alloca i64, align 8
  %12 = alloca i64, align 8
  %13 = alloca i64, align 8
  %14 = alloca i32, align 4
  %15 = alloca ptr, align 8
  %16 = alloca %class.ReservedHeapSpace, align 8
  %17 = alloca %class.ReservedSpace, align 8
  %18 = alloca %class.ReservedSpace, align 8
  %19 = alloca %class.MemRegion, align 8
  %20 = alloca ptr, align 8
  %21 = alloca %class.ReservedSpace, align 8
  %22 = alloca %class.ReservedSpace, align 8
  store ptr %0, ptr %15, align 8
  %23 = load ptr, ptr %15, align 8
  %24 = load i64, ptr @HeapAlignment, align 8
  call void @_ZN10SerialHeap8allocateEm(ptr dead_on_unwind writable sret(%class.ReservedHeapSpace) align 8 %16, ptr noundef nonnull align 8 dereferenceable(192) %23, i64 noundef %24)
  %25 = call noundef zeroext i1 @_ZNK13ReservedSpace11is_reservedEv(ptr noundef nonnull align 8 dereferenceable(49) %16)
  br i1 %25, label %27, label %26

26:                                               ; preds = %1
  call void @_Z33vm_shutdown_during_initializationPKcS0_(ptr noundef @.str.9, ptr noundef null)
  store i32 -4, ptr %14, align 4
  br label %73

27:                                               ; preds = %1
  call void @_ZN13CollectedHeap26initialize_reserved_regionERK17ReservedHeapSpace(ptr noundef nonnull align 8 dereferenceable(104) %23, ptr noundef nonnull align 8 dereferenceable(49) %16)
  %28 = load i64, ptr @MaxNewSize, align 8
  call void @_ZN13ReservedSpace10first_partEm(ptr dead_on_unwind writable sret(%class.ReservedSpace) align 8 %17, ptr noundef nonnull align 8 dereferenceable(49) %16, i64 noundef %28)
  %29 = load i64, ptr @MaxNewSize, align 8
  call void @_ZN13ReservedSpace9last_partEm(ptr dead_on_unwind writable sret(%class.ReservedSpace) align 8 %18, ptr noundef nonnull align 8 dereferenceable(49) %16, i64 noundef %29)
  store i64 88, ptr %10, align 8
  %30 = load i64, ptr %10, align 8
  store i64 %30, ptr %8, align 8
  store i8 5, ptr %9, align 1
  %31 = load i64, ptr %8, align 8
  %32 = load i8, ptr %9, align 1
  %33 = call noundef ptr @_Z12AllocateHeapm8MEMFLAGSN17AllocFailStrategy13AllocFailEnumE(i64 noundef %31, i8 noundef zeroext %32, i32 noundef 0) #10
  %34 = call { ptr, i64 } @_ZNK17ReservedHeapSpace6regionEv(ptr noundef nonnull align 8 dereferenceable(49) %16)
  %35 = getelementptr inbounds { ptr, i64 }, ptr %19, i32 0, i32 0
  %36 = extractvalue { ptr, i64 } %34, 0
  store ptr %36, ptr %35, align 8
  %37 = getelementptr inbounds { ptr, i64 }, ptr %19, i32 0, i32 1
  %38 = extractvalue { ptr, i64 } %34, 1
  store i64 %38, ptr %37, align 8
  %39 = getelementptr inbounds { ptr, i64 }, ptr %19, i32 0, i32 0
  %40 = load ptr, ptr %39, align 8
  %41 = getelementptr inbounds { ptr, i64 }, ptr %19, i32 0, i32 1
  %42 = load i64, ptr %41, align 8
  call void @_ZN11CardTableRSC1E9MemRegion(ptr noundef nonnull align 8 dereferenceable(88) %33, ptr %40, i64 %42)
  %43 = getelementptr inbounds %class.SerialHeap, ptr %23, i32 0, i32 5
  store ptr %33, ptr %43, align 8
  %44 = getelementptr inbounds %class.SerialHeap, ptr %23, i32 0, i32 5
  %45 = load ptr, ptr %44, align 8
  %46 = call noundef ptr @_ZNK13ReservedSpace4baseEv(ptr noundef nonnull align 8 dereferenceable(49) %17)
  %47 = call noundef ptr @_ZNK13ReservedSpace4baseEv(ptr noundef nonnull align 8 dereferenceable(49) %18)
  call void @_ZN9CardTable10initializeEPvS0_(ptr noundef nonnull align 8 dereferenceable(88) %45, ptr noundef %46, ptr noundef %47)
  store i64 80, ptr %11, align 8
  %48 = load i64, ptr %11, align 8
  store i64 %48, ptr %6, align 8
  store i8 5, ptr %7, align 1
  %49 = load i64, ptr %6, align 8
  %50 = load i8, ptr %7, align 1
  %51 = call noundef ptr @_Z12AllocateHeapm8MEMFLAGSN17AllocFailStrategy13AllocFailEnumE(i64 noundef %49, i8 noundef zeroext %50, i32 noundef 0) #10
  %52 = getelementptr inbounds %class.SerialHeap, ptr %23, i32 0, i32 5
  %53 = load ptr, ptr %52, align 8
  call void @_ZN19CardTableBarrierSetC1EP9CardTable(ptr noundef nonnull align 8 dereferenceable(80) %51, ptr noundef %53)
  store ptr %51, ptr %20, align 8
  %54 = load ptr, ptr %20, align 8
  call void @_ZN19CardTableBarrierSet10initializeEv(ptr noundef nonnull align 8 dereferenceable(80) %54)
  %55 = load ptr, ptr %20, align 8
  call void @_ZN10BarrierSet15set_barrier_setEPS_(ptr noundef %55)
  store i64 744, ptr %12, align 8
  %56 = load i64, ptr %12, align 8
  store i64 %56, ptr %4, align 8
  store i8 5, ptr %5, align 1
  %57 = load i64, ptr %4, align 8
  %58 = load i8, ptr %5, align 1
  %59 = call noundef ptr @_Z12AllocateHeapm8MEMFLAGSN17AllocFailStrategy13AllocFailEnumE(i64 noundef %57, i8 noundef zeroext %58, i32 noundef 0) #10
  call void @llvm.memcpy.p0.p0.i64(ptr align 8 %21, ptr align 8 %17, i64 56, i1 false)
  %60 = load i64, ptr @NewSize, align 8
  %61 = load i64, ptr @MinNewSize, align 8
  %62 = load i64, ptr @MaxNewSize, align 8
  call void @_ZN16DefNewGenerationC1E13ReservedSpacemmmPKc(ptr noundef nonnull align 8 dereferenceable(744) %59, ptr noundef byval(%class.ReservedSpace) align 8 %21, i64 noundef %60, i64 noundef %61, i64 noundef %62, ptr noundef @.str.10)
  %63 = getelementptr inbounds %class.SerialHeap, ptr %23, i32 0, i32 1
  store ptr %59, ptr %63, align 8
  store i64 248, ptr %13, align 8
  %64 = load i64, ptr %13, align 8
  store i64 %64, ptr %2, align 8
  store i8 5, ptr %3, align 1
  %65 = load i64, ptr %2, align 8
  %66 = load i8, ptr %3, align 1
  %67 = call noundef ptr @_Z12AllocateHeapm8MEMFLAGSN17AllocFailStrategy13AllocFailEnumE(i64 noundef %65, i8 noundef zeroext %66, i32 noundef 0) #10
  call void @llvm.memcpy.p0.p0.i64(ptr align 8 %22, ptr align 8 %18, i64 56, i1 false)
  %68 = load i64, ptr @OldSize, align 8
  %69 = load i64, ptr @MinOldSize, align 8
  %70 = load i64, ptr @MaxOldSize, align 8
  %71 = call noundef ptr @_ZN10SerialHeap7rem_setEv(ptr noundef nonnull align 8 dereferenceable(192) %23)
  call void @_ZN17TenuredGenerationC1E13ReservedSpacemmmP11CardTableRS(ptr noundef nonnull align 8 dereferenceable(248) %67, ptr noundef byval(%class.ReservedSpace) align 8 %22, i64 noundef %68, i64 noundef %69, i64 noundef %70, ptr noundef %71)
  %72 = getelementptr inbounds %class.SerialHeap, ptr %23, i32 0, i32 2
  store ptr %67, ptr %72, align 8
  call void @_ZN12GCInitLogger5printEv()
  store i32 0, ptr %14, align 4
  br label %73

73:                                               ; preds = %27, %26
  %74 = load i32, ptr %14, align 4
  ret i32 %74
}