; Function Attrs: mustprogress nounwind uwtable
define hidden noundef range(i32 -4, 1) i32 @_ZN10SerialHeap10initializeEv(ptr noundef nonnull align 8 dereferenceable(192) %0) unnamed_addr #0 align 2 {
  %2 = alloca %class.ReservedHeapSpace, align 8
  %3 = alloca %class.ReservedSpace, align 8
  %4 = alloca %class.ReservedSpace, align 8
  %5 = load i64, ptr @HeapAlignment, align 8
  tail call void @llvm.experimental.noalias.scope.decl(metadata !6)
  %6 = load i8, ptr @UseLargePages, align 1, !noalias !6
  %7 = trunc i8 %6 to i1
  br i1 %7, label %8, label %10

8:                                                ; preds = %1
  %9 = tail call noundef i64 @_ZN2os15large_page_sizeEv() #16, !noalias !6
  br label %10

10:                                               ; preds = %8, %1
  %11 = load i64, ptr @MaxNewSize, align 8, !noalias !6
  %12 = load i64, ptr @MaxOldSize, align 8, !noalias !6
  %13 = add i64 %12, %11
  %14 = icmp ult i64 %13, %11
  br i1 %14, label %15, label %_ZN10SerialHeap8allocateEm.exit

15:                                               ; preds = %10
  tail call void @_Z29vm_exit_during_initializationPKcS0_(ptr noundef nonnull @.str.11, ptr noundef null) #16, !noalias !6
  br label %_ZN10SerialHeap8allocateEm.exit

_ZN10SerialHeap8allocateEm.exit:                  ; preds = %10, %15
  call void @_ZN8Universe12reserve_heapEmm(ptr dead_on_unwind nonnull writable sret(%class.ReservedHeapSpace) align 8 %2, i64 noundef %13, i64 noundef %5) #16
  %16 = getelementptr inbounds i8, ptr %2, i64 32
  %17 = load i64, ptr %16, align 8, !alias.scope !6
  %18 = load i64, ptr @MinHeapSize, align 8, !noalias !6
  %19 = load ptr, ptr %2, align 8, !alias.scope !6
  %20 = getelementptr inbounds i8, ptr %2, i64 8
  %21 = load i64, ptr %20, align 8, !alias.scope !6
  call void @_ZN2os16trace_page_sizesEPKcmmS1_mm(ptr noundef nonnull @.str.12, i64 noundef %18, i64 noundef %13, ptr noundef %19, i64 noundef %21, i64 noundef %17) #16
  %22 = load ptr, ptr %2, align 8
  %.not = icmp eq ptr %22, null
  br i1 %.not, label %23, label %24

23:                                               ; preds = %_ZN10SerialHeap8allocateEm.exit
  call void @_Z33vm_shutdown_during_initializationPKcS0_(ptr noundef nonnull @.str.9, ptr noundef null) #16
  br label %50

24:                                               ; preds = %_ZN10SerialHeap8allocateEm.exit
  call void @_ZN13CollectedHeap26initialize_reserved_regionERK17ReservedHeapSpace(ptr noundef nonnull align 8 dereferenceable(104) %0, ptr noundef nonnull align 8 dereferenceable(49) %2) #16
  %25 = load i64, ptr @MaxNewSize, align 8
  %26 = getelementptr inbounds i8, ptr %2, i64 24
  %27 = load i64, ptr %26, align 8, !noalias !9
  call void @_ZN13ReservedSpace10first_partEmm(ptr dead_on_unwind nonnull writable sret(%class.ReservedSpace) align 8 %3, ptr noundef nonnull align 8 dereferenceable(49) %2, i64 noundef %25, i64 noundef %27) #16
  %28 = load i64, ptr @MaxNewSize, align 8
  %29 = load i64, ptr %26, align 8, !noalias !12
  call void @_ZN13ReservedSpace9last_partEmm(ptr dead_on_unwind nonnull writable sret(%class.ReservedSpace) align 8 %4, ptr noundef nonnull align 8 dereferenceable(49) %2, i64 noundef %28, i64 noundef %29) #16
  %30 = call noundef ptr @_Z12AllocateHeapm8MEMFLAGSN17AllocFailStrategy13AllocFailEnumE(i64 noundef 88, i8 noundef zeroext 5, i32 noundef 0) #16
  %31 = call { ptr, i64 } @_ZNK17ReservedHeapSpace6regionEv(ptr noundef nonnull align 8 dereferenceable(49) %2) #16
  %32 = extractvalue { ptr, i64 } %31, 0
  %33 = extractvalue { ptr, i64 } %31, 1
  call void @_ZN11CardTableRSC1E9MemRegion(ptr noundef nonnull align 8 dereferenceable(88) %30, ptr %32, i64 %33) #16
  %34 = getelementptr inbounds i8, ptr %0, i64 136
  store ptr %30, ptr %34, align 8
  %35 = load ptr, ptr %3, align 8
  %36 = load ptr, ptr %4, align 8
  call void @_ZN9CardTable10initializeEPvS0_(ptr noundef nonnull align 8 dereferenceable(88) %30, ptr noundef %35, ptr noundef %36) #16
  %37 = call noundef ptr @_Z12AllocateHeapm8MEMFLAGSN17AllocFailStrategy13AllocFailEnumE(i64 noundef 80, i8 noundef zeroext 5, i32 noundef 0) #16
  %38 = load ptr, ptr %34, align 8
  call void @_ZN19CardTableBarrierSetC1EP9CardTable(ptr noundef nonnull align 8 dereferenceable(80) %37, ptr noundef %38) #16
  call void @_ZN19CardTableBarrierSet10initializeEv(ptr noundef nonnull align 8 dereferenceable(80) %37) #16
  call void @_ZN10BarrierSet15set_barrier_setEPS_(ptr noundef nonnull %37) #16
  %39 = call noundef ptr @_Z12AllocateHeapm8MEMFLAGSN17AllocFailStrategy13AllocFailEnumE(i64 noundef 744, i8 noundef zeroext 5, i32 noundef 0) #16
  %40 = load i64, ptr @NewSize, align 8
  %41 = load i64, ptr @MinNewSize, align 8
  %42 = load i64, ptr @MaxNewSize, align 8
  call void @_ZN16DefNewGenerationC1E13ReservedSpacemmmPKc(ptr noundef nonnull align 8 dereferenceable(744) %39, ptr noundef nonnull byval(%class.ReservedSpace) align 8 %3, i64 noundef %40, i64 noundef %41, i64 noundef %42, ptr noundef nonnull @.str.10) #16
  %43 = getelementptr inbounds i8, ptr %0, i64 104
  store ptr %39, ptr %43, align 8
  %44 = call noundef ptr @_Z12AllocateHeapm8MEMFLAGSN17AllocFailStrategy13AllocFailEnumE(i64 noundef 248, i8 noundef zeroext 5, i32 noundef 0) #16
  %45 = load i64, ptr @OldSize, align 8
  %46 = load i64, ptr @MinOldSize, align 8
  %47 = load i64, ptr @MaxOldSize, align 8
  %48 = load ptr, ptr %34, align 8
  call void @_ZN17TenuredGenerationC1E13ReservedSpacemmmP11CardTableRS(ptr noundef nonnull align 8 dereferenceable(248) %44, ptr noundef nonnull byval(%class.ReservedSpace) align 8 %4, i64 noundef %45, i64 noundef %46, i64 noundef %47, ptr noundef %48) #16
  %49 = getelementptr inbounds i8, ptr %0, i64 112
  store ptr %44, ptr %49, align 8
  call void @_ZN12GCInitLogger5printEv() #16
  br label %50

50:                                               ; preds = %24, %23
  %.0 = phi i32 [ 0, %24 ], [ -4, %23 ]
  ret i32 %.0
}